target datalayout = "e-m:e-p270:32:32-p271:32:32-p272:64:64-i64:64-i128:128-f80:128-n8:16:32:64-S128"
target triple = "x86_64-pc-linux-gnu"

@stdout = external global ptr, align 8

; Function Attrs: nounwind uwtable
define internal void @sapi_cli_flush(ptr noundef %0) #0 {
  %2 = alloca ptr, align 8
  store ptr %0, ptr %2, align 8
  %3 = load ptr, ptr @stdout, align 8
  %4 = call i32 @fflush(ptr noundef %3)
  %5 = icmp eq i32 %4, -1
  br i1 %5, label %6, label %11

6:                                                ; preds = %1
  %7 = call ptr @__errno_location() #12
  %8 = load i32, ptr %7, align 4
  %9 = icmp ne i32 %8, 9
  br i1 %9, label %10, label %11

10:                                               ; preds = %6
  call void @php_handle_aborted_connection()
  br label %11

11:                                               ; preds = %10, %6, %1
  ret void
}