; Function Attrs: nounwind uwtable
define internal void @sapi_cli_flush(ptr nocapture readnone %0) #1 {
  %2 = load ptr, ptr @stdout, align 8
  %3 = tail call i32 @fflush(ptr noundef %2)
  %4 = icmp eq i32 %3, -1
  br i1 %4, label %5, label %9

5:                                                ; preds = %1
  %6 = tail call ptr @__errno_location() #24
  %7 = load i32, ptr %6, align 4
  %.not = icmp eq i32 %7, 9
  br i1 %.not, label %9, label %8

8:                                                ; preds = %5
  tail call void @php_handle_aborted_connection() #23
  br label %9

9:                                                ; preds = %8, %5, %1
  ret void
}